(dp0
S'density'
p1
(dp2
(S'A1'
p3
S'PV'
p4
tp5
(lp6
F6716.4
aF9948.319999999996
aF17452.800000000007
aF15889.050000000005
aF7326.719999999997
asS'nrn_density'
p7
(lp8
F193000.0
aF194000.0
aF202000.0
aF200999.99999999997
aF192000.0
as(g3
S'I'
p9
tp10
(lp11
F23160.0
aF15519.999999999993
aF32320.000000000007
aF34170.00000000001
aF17279.999999999993
as(g3
S'E'
p12
tp13
(lp14
F169840.0
aF178480.0
aF169680.0
aF166830.0
aF174720.0
as(g3
S'nonVIP'
p15
tp16
(lp17
F5720.5199999999995
aF1536.4799999999993
aF2068.4800000000005
aF2904.4500000000007
aF3335.0399999999986
as(g3
S'VIP'
p18
tp19
(lp20
F8036.5199999999995
aF1427.8399999999992
aF2520.9600000000005
aF2050.2000000000003
aF1105.9199999999996
as(g3
S'SOM'
p21
tp22
(lp23
F2686.56
aF2622.8799999999987
aF10310.080000000002
aF13292.130000000003
aF5495.039999999998
ass.