ccopy_reg
_reconstructor
p0
(cnetpyne.specs.dicts
Dict
p1
c__builtin__
dict
p2
(dp3
Vsecs
p4
g0
(g1
g2
(dp5
Vsoma
p6
g0
(g1
g2
(dp7
Vions
p8
g0
(g1
g2
(dp9
Vna
p10
g0
(g1
g2
(dp11
Vi
p12
F10.0
sVe
p13
F50.0
sVo
p14
F140.0
stp15
Rp16
g0
(cfuture.types.newdict
newdict
p17
g2
(dp18
g12
F10.0
sg13
F50.0
sg14
F140.0
stp19
Rp20
bsVca
p21
g0
(g1
g2
(dp22
Vi
p23
F5e-05
sVe
p24
F132.4579341637009
sVo
p25
F2.0
stp26
Rp27
g0
(g17
g2
(dp28
g23
F5e-05
sg24
F132.4579341637009
sg25
F2.0
stp29
Rp30
bsVk
p31
g0
(g1
g2
(dp32
Vi
p33
F54.4
sVe
p34
F-77.0
sVo
p35
F2.5
stp36
Rp37
g0
(g17
g2
(dp38
g33
F54.4
sg34
F-77.0
sg35
F2.5
stp39
Rp40
bstp41
Rp42
g0
(g17
g2
(dp43
g10
g0
(g17
g2
(dp44
g12
F10.0
sg13
F50.0
sg14
F140.0
stp45
Rp46
sg21
g0
(g17
g2
(dp47
g23
F5e-05
sg24
F132.4579341637009
sg25
F2.0
stp48
Rp49
sg31
g0
(g17
g2
(dp50
g33
F54.4
sg34
F-77.0
sg35
F2.5
stp51
Rp52
stp53
Rp54
bsVmechs
p55
g0
(g1
g2
(dp56
S'pas'
p57
g0
(g1
g2
(dp58
Ve
p59
F-70.0
sVg
p60
F5e-05
stp61
Rp62
g0
(g17
g2
(dp63
g59
F-70.0
sg60
F5e-05
stp64
Rp65
bsS'cancr'
p66
g0
(g1
g2
(dp67
Vgcabar
p68
F0.0
stp69
Rp70
g0
(g17
g2
(dp71
g68
F0.0
stp72
Rp73
bsS'Nafcr'
p74
g0
(g1
g2
(dp75
Vgnafbar
p76
F0.015
stp77
Rp78
g0
(g17
g2
(dp79
g76
F0.015
stp80
Rp81
bsS'iCcr'
p82
g0
(g1
g2
(dp83
Vgkcbar
p84
F3e-05
stp85
Rp86
g0
(g17
g2
(dp87
g84
F3e-05
stp88
Rp89
bsS'IKscr'
p90
g0
(g1
g2
(dp91
VgKsbar
p92
F0.000725
stp93
Rp94
g0
(g17
g2
(dp95
g92
F0.000725
stp96
Rp97
bsS'kdrcr'
p98
g0
(g1
g2
(dp99
Vgkdrbar
p100
F0.018
stp101
Rp102
g0
(g17
g2
(dp103
g100
F0.018
stp104
Rp105
bsS'cadyn'
p106
g0
(g1
g2
(dp107
tp108
Rp109
stp110
Rp111
g0
(g17
g2
(dp112
g57
g0
(g17
g2
(dp113
g59
F-70.0
sg60
F5e-05
stp114
Rp115
sg66
g0
(g17
g2
(dp116
g68
F0.0
stp117
Rp118
sg74
g0
(g17
g2
(dp119
g76
F0.015
stp120
Rp121
sg82
g0
(g17
g2
(dp122
g84
F3e-05
stp123
Rp124
sg90
g0
(g17
g2
(dp125
g92
F0.000725
stp126
Rp127
sg98
g0
(g17
g2
(dp128
g100
F0.018
stp129
Rp130
sg106
g0
(g17
g2
(dp131
tp132
Rp133
stp134
Rp135
bsVgeom
p136
g0
(g1
g2
(dp137
Vnseg
p138
I201
sVdiam
p139
F10.0
sVL
p140
F20.0
sVcm
p141
F1.2
sVRa
p142
F150.0
stp143
Rp144
g0
(g17
g2
(dp145
g138
I201
sg139
F10.0
sg140
F20.0
sg141
F1.2
sg142
F150.0
stp146
Rp147
bsVtopol
p148
g0
(g1
g2
(dp149
tp150
Rp151
stp152
Rp153
g0
(g17
g2
(dp154
g8
g0
(g17
g2
(dp155
g10
g0
(g17
g2
(dp156
g12
F10.0
sg13
F50.0
sg14
F140.0
stp157
Rp158
sg21
g0
(g17
g2
(dp159
g23
F5e-05
sg24
F132.4579341637009
sg25
F2.0
stp160
Rp161
sg31
g0
(g17
g2
(dp162
g33
F54.4
sg34
F-77.0
sg35
F2.5
stp163
Rp164
stp165
Rp166
sg55
g0
(g17
g2
(dp167
g57
g0
(g17
g2
(dp168
g59
F-70.0
sg60
F5e-05
stp169
Rp170
sg66
g0
(g17
g2
(dp171
g68
F0.0
stp172
Rp173
sg74
g0
(g17
g2
(dp174
g76
F0.015
stp175
Rp176
sg82
g0
(g17
g2
(dp177
g84
F3e-05
stp178
Rp179
sg90
g0
(g17
g2
(dp180
g92
F0.000725
stp181
Rp182
sg98
g0
(g17
g2
(dp183
g100
F0.018
stp184
Rp185
sg106
g0
(g17
g2
(dp186
tp187
Rp188
stp189
Rp190
sg136
g0
(g17
g2
(dp191
g138
I201
sg139
F10.0
sg140
F20.0
sg141
F1.2
sg142
F150.0
stp192
Rp193
sg148
g0
(g17
g2
(dp194
tp195
Rp196
stp197
Rp198
bsVori1
p199
g0
(g1
g2
(dp200
g8
g0
(g1
g2
(dp201
Vna
p202
g0
(g1
g2
(dp203
Vi
p204
F10.0
sVe
p205
F50.0
sVo
p206
F140.0
stp207
Rp208
g0
(g17
g2
(dp209
g204
F10.0
sg205
F50.0
sg206
F140.0
stp210
Rp211
bsg31
g0
(g1
g2
(dp212
Vi
p213
F54.4
sVe
p214
F-77.0
sVo
p215
F2.5
stp216
Rp217
g0
(g17
g2
(dp218
g213
F54.4
sg214
F-77.0
sg215
F2.5
stp219
Rp220
bstp221
Rp222
g0
(g17
g2
(dp223
g202
g0
(g17
g2
(dp224
g204
F10.0
sg205
F50.0
sg206
F140.0
stp225
Rp226
sg31
g0
(g17
g2
(dp227
g213
F54.4
sg214
F-77.0
sg215
F2.5
stp228
Rp229
stp230
Rp231
bsg55
g0
(g1
g2
(dp232
g98
g0
(g1
g2
(dp233
Vgkdrbar
p234
F0.009
stp235
Rp236
g0
(g17
g2
(dp237
g234
F0.009
stp238
Rp239
bsg57
g0
(g1
g2
(dp240
Ve
p241
F-70.0
sVg
p242
F5e-05
stp243
Rp244
g0
(g17
g2
(dp245
g241
F-70.0
sg242
F5e-05
stp246
Rp247
bsg74
g0
(g1
g2
(dp248
Vgnafbar
p249
F0.09
stp250
Rp251
g0
(g17
g2
(dp252
g249
F0.09
stp253
Rp254
bstp255
Rp256
g0
(g17
g2
(dp257
g98
g0
(g17
g2
(dp258
g234
F0.009
stp259
Rp260
sg57
g0
(g17
g2
(dp261
g241
F-70.0
sg242
F5e-05
stp262
Rp263
sg74
g0
(g17
g2
(dp264
g249
F0.09
stp265
Rp266
stp267
Rp268
bsg136
g0
(g1
g2
(dp269
g138
I1501
sg139
F1.5
sg140
F150.0
sg141
F1.2
sg142
F150.0
stp270
Rp271
g0
(g17
g2
(dp272
g138
I1501
sg139
F1.5
sg140
F150.0
sg141
F1.2
sg142
F150.0
stp273
Rp274
bsg148
g0
(g1
g2
(dp275
VchildX
p276
F0.0
sVparentSec
p277
Vsoma
p278
sVparentX
p279
F0.0
stp280
Rp281
g0
(g17
g2
(dp282
g276
F0.0
sg277
g278
sg279
F0.0
stp283
Rp284
bstp285
Rp286
g0
(g17
g2
(dp287
g8
g0
(g17
g2
(dp288
g202
g0
(g17
g2
(dp289
g204
F10.0
sg205
F50.0
sg206
F140.0
stp290
Rp291
sg31
g0
(g17
g2
(dp292
g213
F54.4
sg214
F-77.0
sg215
F2.5
stp293
Rp294
stp295
Rp296
sg55
g0
(g17
g2
(dp297
g98
g0
(g17
g2
(dp298
g234
F0.009
stp299
Rp300
sg57
g0
(g17
g2
(dp301
g241
F-70.0
sg242
F5e-05
stp302
Rp303
sg74
g0
(g17
g2
(dp304
g249
F0.09
stp305
Rp306
stp307
Rp308
sg136
g0
(g17
g2
(dp309
g138
I1501
sg139
F1.5
sg140
F150.0
sg141
F1.2
sg142
F150.0
stp310
Rp311
sg148
g0
(g17
g2
(dp312
g276
F0.0
sg277
g278
sg279
F0.0
stp313
Rp314
stp315
Rp316
bsVori2
p317
g0
(g1
g2
(dp318
g8
g0
(g1
g2
(dp319
Vna
p320
g0
(g1
g2
(dp321
Vi
p322
F10.0
sVe
p323
F50.0
sVo
p324
F140.0
stp325
Rp326
g0
(g17
g2
(dp327
g322
F10.0
sg323
F50.0
sg324
F140.0
stp328
Rp329
bsg31
g0
(g1
g2
(dp330
Vi
p331
F54.4
sVe
p332
F-77.0
sVo
p333
F2.5
stp334
Rp335
g0
(g17
g2
(dp336
g331
F54.4
sg332
F-77.0
sg333
F2.5
stp337
Rp338
bstp339
Rp340
g0
(g17
g2
(dp341
g320
g0
(g17
g2
(dp342
g322
F10.0
sg323
F50.0
sg324
F140.0
stp343
Rp344
sg31
g0
(g17
g2
(dp345
g331
F54.4
sg332
F-77.0
sg333
F2.5
stp346
Rp347
stp348
Rp349
bsg55
g0
(g1
g2
(dp350
g98
g0
(g1
g2
(dp351
Vgkdrbar
p352
F0.009
stp353
Rp354
g0
(g17
g2
(dp355
g352
F0.009
stp356
Rp357
bsg57
g0
(g1
g2
(dp358
Ve
p359
F-70.0
sVg
p360
F5e-05
stp361
Rp362
g0
(g17
g2
(dp363
g359
F-70.0
sg360
F5e-05
stp364
Rp365
bsg74
g0
(g1
g2
(dp366
Vgnafbar
p367
F0.09
stp368
Rp369
g0
(g17
g2
(dp370
g367
F0.09
stp371
Rp372
bstp373
Rp374
g0
(g17
g2
(dp375
g98
g0
(g17
g2
(dp376
g352
F0.009
stp377
Rp378
sg57
g0
(g17
g2
(dp379
g359
F-70.0
sg360
F5e-05
stp380
Rp381
sg74
g0
(g17
g2
(dp382
g367
F0.09
stp383
Rp384
stp385
Rp386
bsg136
g0
(g1
g2
(dp387
g138
I1501
sg139
F1.5
sg140
F150.0
sg141
F1.2
sg142
F150.0
stp388
Rp389
g0
(g17
g2
(dp390
g138
I1501
sg139
F1.5
sg140
F150.0
sg141
F1.2
sg142
F150.0
stp391
Rp392
bsg148
g0
(g1
g2
(dp393
g276
F0.0
sg277
Vsoma
p394
sg279
F1.0
stp395
Rp396
g0
(g17
g2
(dp397
g276
F0.0
sg277
g394
sg279
F1.0
stp398
Rp399
bstp400
Rp401
g0
(g17
g2
(dp402
g8
g0
(g17
g2
(dp403
g320
g0
(g17
g2
(dp404
g322
F10.0
sg323
F50.0
sg324
F140.0
stp405
Rp406
sg31
g0
(g17
g2
(dp407
g331
F54.4
sg332
F-77.0
sg333
F2.5
stp408
Rp409
stp410
Rp411
sg55
g0
(g17
g2
(dp412
g98
g0
(g17
g2
(dp413
g352
F0.009
stp414
Rp415
sg57
g0
(g17
g2
(dp416
g359
F-70.0
sg360
F5e-05
stp417
Rp418
sg74
g0
(g17
g2
(dp419
g367
F0.09
stp420
Rp421
stp422
Rp423
sg136
g0
(g17
g2
(dp424
g138
I1501
sg139
F1.5
sg140
F150.0
sg141
F1.2
sg142
F150.0
stp425
Rp426
sg148
g0
(g17
g2
(dp427
g276
F0.0
sg277
g394
sg279
F1.0
stp428
Rp429
stp430
Rp431
bsVrad2
p432
g0
(g1
g2
(dp433
g8
g0
(g1
g2
(dp434
Vna
p435
g0
(g1
g2
(dp436
Vi
p437
F10.0
sVe
p438
F50.0
sVo
p439
F140.0
stp440
Rp441
g0
(g17
g2
(dp442
g437
F10.0
sg438
F50.0
sg439
F140.0
stp443
Rp444
bsg31
g0
(g1
g2
(dp445
Vi
p446
F54.4
sVe
p447
F-77.0
sVo
p448
F2.5
stp449
Rp450
g0
(g17
g2
(dp451
g446
F54.4
sg447
F-77.0
sg448
F2.5
stp452
Rp453
bstp454
Rp455
g0
(g17
g2
(dp456
g435
g0
(g17
g2
(dp457
g437
F10.0
sg438
F50.0
sg439
F140.0
stp458
Rp459
sg31
g0
(g17
g2
(dp460
g446
F54.4
sg447
F-77.0
sg448
F2.5
stp461
Rp462
stp463
Rp464
bsg55
g0
(g1
g2
(dp465
g98
g0
(g1
g2
(dp466
Vgkdrbar
p467
F0.009
stp468
Rp469
g0
(g17
g2
(dp470
g467
F0.009
stp471
Rp472
bsg57
g0
(g1
g2
(dp473
Ve
p474
F-70.0
sVg
p475
F5e-05
stp476
Rp477
g0
(g17
g2
(dp478
g474
F-70.0
sg475
F5e-05
stp479
Rp480
bsg74
g0
(g1
g2
(dp481
Vgnafbar
p482
F0.09
stp483
Rp484
g0
(g17
g2
(dp485
g482
F0.09
stp486
Rp487
bstp488
Rp489
g0
(g17
g2
(dp490
g98
g0
(g17
g2
(dp491
g467
F0.009
stp492
Rp493
sg57
g0
(g17
g2
(dp494
g474
F-70.0
sg475
F5e-05
stp495
Rp496
sg74
g0
(g17
g2
(dp497
g482
F0.09
stp498
Rp499
stp500
Rp501
bsg136
g0
(g1
g2
(dp502
g138
I3001
sg139
F3.0
sg140
F300.0
sg141
F1.2
sg142
F150.0
stp503
Rp504
g0
(g17
g2
(dp505
g138
I3001
sg139
F3.0
sg140
F300.0
sg141
F1.2
sg142
F150.0
stp506
Rp507
bsg148
g0
(g1
g2
(dp508
g276
F0.0
sg277
Vsoma
p509
sg279
F1.0
stp510
Rp511
g0
(g17
g2
(dp512
g276
F0.0
sg277
g509
sg279
F1.0
stp513
Rp514
bstp515
Rp516
g0
(g17
g2
(dp517
g8
g0
(g17
g2
(dp518
g435
g0
(g17
g2
(dp519
g437
F10.0
sg438
F50.0
sg439
F140.0
stp520
Rp521
sg31
g0
(g17
g2
(dp522
g446
F54.4
sg447
F-77.0
sg448
F2.5
stp523
Rp524
stp525
Rp526
sg55
g0
(g17
g2
(dp527
g98
g0
(g17
g2
(dp528
g467
F0.009
stp529
Rp530
sg57
g0
(g17
g2
(dp531
g474
F-70.0
sg475
F5e-05
stp532
Rp533
sg74
g0
(g17
g2
(dp534
g482
F0.09
stp535
Rp536
stp537
Rp538
sg136
g0
(g17
g2
(dp539
g138
I3001
sg139
F3.0
sg140
F300.0
sg141
F1.2
sg142
F150.0
stp540
Rp541
sg148
g0
(g17
g2
(dp542
g276
F0.0
sg277
g509
sg279
F1.0
stp543
Rp544
stp545
Rp546
bsVrad1
p547
g0
(g1
g2
(dp548
g8
g0
(g1
g2
(dp549
Vna
p550
g0
(g1
g2
(dp551
Vi
p552
F10.0
sVe
p553
F50.0
sVo
p554
F140.0
stp555
Rp556
g0
(g17
g2
(dp557
g552
F10.0
sg553
F50.0
sg554
F140.0
stp558
Rp559
bsg31
g0
(g1
g2
(dp560
Vi
p561
F54.4
sVe
p562
F-77.0
sVo
p563
F2.5
stp564
Rp565
g0
(g17
g2
(dp566
g561
F54.4
sg562
F-77.0
sg563
F2.5
stp567
Rp568
bstp569
Rp570
g0
(g17
g2
(dp571
g550
g0
(g17
g2
(dp572
g552
F10.0
sg553
F50.0
sg554
F140.0
stp573
Rp574
sg31
g0
(g17
g2
(dp575
g561
F54.4
sg562
F-77.0
sg563
F2.5
stp576
Rp577
stp578
Rp579
bsg55
g0
(g1
g2
(dp580
g98
g0
(g1
g2
(dp581
Vgkdrbar
p582
F0.009
stp583
Rp584
g0
(g17
g2
(dp585
g582
F0.009
stp586
Rp587
bsg57
g0
(g1
g2
(dp588
Ve
p589
F-70.0
sVg
p590
F5e-05
stp591
Rp592
g0
(g17
g2
(dp593
g589
F-70.0
sg590
F5e-05
stp594
Rp595
bsg74
g0
(g1
g2
(dp596
Vgnafbar
p597
F0.09
stp598
Rp599
g0
(g17
g2
(dp600
g597
F0.09
stp601
Rp602
bstp603
Rp604
g0
(g17
g2
(dp605
g98
g0
(g17
g2
(dp606
g582
F0.009
stp607
Rp608
sg57
g0
(g17
g2
(dp609
g589
F-70.0
sg590
F5e-05
stp610
Rp611
sg74
g0
(g17
g2
(dp612
g597
F0.09
stp613
Rp614
stp615
Rp616
bsg136
g0
(g1
g2
(dp617
g138
I3001
sg139
F3.0
sg140
F300.0
sg141
F1.2
sg142
F150.0
stp618
Rp619
g0
(g17
g2
(dp620
g138
I3001
sg139
F3.0
sg140
F300.0
sg141
F1.2
sg142
F150.0
stp621
Rp622
bsg148
g0
(g1
g2
(dp623
g276
F0.0
sg277
Vsoma
p624
sg279
F0.0
stp625
Rp626
g0
(g17
g2
(dp627
g276
F0.0
sg277
g624
sg279
F0.0
stp628
Rp629
bstp630
Rp631
g0
(g17
g2
(dp632
g8
g0
(g17
g2
(dp633
g550
g0
(g17
g2
(dp634
g552
F10.0
sg553
F50.0
sg554
F140.0
stp635
Rp636
sg31
g0
(g17
g2
(dp637
g561
F54.4
sg562
F-77.0
sg563
F2.5
stp638
Rp639
stp640
Rp641
sg55
g0
(g17
g2
(dp642
g98
g0
(g17
g2
(dp643
g582
F0.009
stp644
Rp645
sg57
g0
(g17
g2
(dp646
g589
F-70.0
sg590
F5e-05
stp647
Rp648
sg74
g0
(g17
g2
(dp649
g597
F0.09
stp650
Rp651
stp652
Rp653
sg136
g0
(g17
g2
(dp654
g138
I3001
sg139
F3.0
sg140
F300.0
sg141
F1.2
sg142
F150.0
stp655
Rp656
sg148
g0
(g17
g2
(dp657
g276
F0.0
sg277
g624
sg279
F0.0
stp658
Rp659
stp660
Rp661
bstp662
Rp663
g0
(g17
g2
(dp664
g6
g0
(g17
g2
(dp665
g8
g0
(g17
g2
(dp666
g10
g0
(g17
g2
(dp667
g12
F10.0
sg13
F50.0
sg14
F140.0
stp668
Rp669
sg21
g0
(g17
g2
(dp670
g23
F5e-05
sg24
F132.4579341637009
sg25
F2.0
stp671
Rp672
sg31
g0
(g17
g2
(dp673
g33
F54.4
sg34
F-77.0
sg35
F2.5
stp674
Rp675
stp676
Rp677
sg55
g0
(g17
g2
(dp678
g57
g0
(g17
g2
(dp679
g59
F-70.0
sg60
F5e-05
stp680
Rp681
sg66
g0
(g17
g2
(dp682
g68
F0.0
stp683
Rp684
sg74
g0
(g17
g2
(dp685
g76
F0.015
stp686
Rp687
sg82
g0
(g17
g2
(dp688
g84
F3e-05
stp689
Rp690
sg90
g0
(g17
g2
(dp691
g92
F0.000725
stp692
Rp693
sg98
g0
(g17
g2
(dp694
g100
F0.018
stp695
Rp696
sg106
g0
(g17
g2
(dp697
tp698
Rp699
stp700
Rp701
sg136
g0
(g17
g2
(dp702
g138
I201
sg139
F10.0
sg140
F20.0
sg141
F1.2
sg142
F150.0
stp703
Rp704
sg148
g0
(g17
g2
(dp705
tp706
Rp707
stp708
Rp709
sg199
g0
(g17
g2
(dp710
g8
g0
(g17
g2
(dp711
g202
g0
(g17
g2
(dp712
g204
F10.0
sg205
F50.0
sg206
F140.0
stp713
Rp714
sg31
g0
(g17
g2
(dp715
g213
F54.4
sg214
F-77.0
sg215
F2.5
stp716
Rp717
stp718
Rp719
sg55
g0
(g17
g2
(dp720
g98
g0
(g17
g2
(dp721
g234
F0.009
stp722
Rp723
sg57
g0
(g17
g2
(dp724
g241
F-70.0
sg242
F5e-05
stp725
Rp726
sg74
g0
(g17
g2
(dp727
g249
F0.09
stp728
Rp729
stp730
Rp731
sg136
g0
(g17
g2
(dp732
g138
I1501
sg139
F1.5
sg140
F150.0
sg141
F1.2
sg142
F150.0
stp733
Rp734
sg148
g0
(g17
g2
(dp735
g276
F0.0
sg277
g278
sg279
F0.0
stp736
Rp737
stp738
Rp739
sg317
g0
(g17
g2
(dp740
g8
g0
(g17
g2
(dp741
g320
g0
(g17
g2
(dp742
g322
F10.0
sg323
F50.0
sg324
F140.0
stp743
Rp744
sg31
g0
(g17
g2
(dp745
g331
F54.4
sg332
F-77.0
sg333
F2.5
stp746
Rp747
stp748
Rp749
sg55
g0
(g17
g2
(dp750
g98
g0
(g17
g2
(dp751
g352
F0.009
stp752
Rp753
sg57
g0
(g17
g2
(dp754
g359
F-70.0
sg360
F5e-05
stp755
Rp756
sg74
g0
(g17
g2
(dp757
g367
F0.09
stp758
Rp759
stp760
Rp761
sg136
g0
(g17
g2
(dp762
g138
I1501
sg139
F1.5
sg140
F150.0
sg141
F1.2
sg142
F150.0
stp763
Rp764
sg148
g0
(g17
g2
(dp765
g276
F0.0
sg277
g394
sg279
F1.0
stp766
Rp767
stp768
Rp769
sg432
g0
(g17
g2
(dp770
g8
g0
(g17
g2
(dp771
g435
g0
(g17
g2
(dp772
g437
F10.0
sg438
F50.0
sg439
F140.0
stp773
Rp774
sg31
g0
(g17
g2
(dp775
g446
F54.4
sg447
F-77.0
sg448
F2.5
stp776
Rp777
stp778
Rp779
sg55
g0
(g17
g2
(dp780
g98
g0
(g17
g2
(dp781
g467
F0.009
stp782
Rp783
sg57
g0
(g17
g2
(dp784
g474
F-70.0
sg475
F5e-05
stp785
Rp786
sg74
g0
(g17
g2
(dp787
g482
F0.09
stp788
Rp789
stp790
Rp791
sg136
g0
(g17
g2
(dp792
g138
I3001
sg139
F3.0
sg140
F300.0
sg141
F1.2
sg142
F150.0
stp793
Rp794
sg148
g0
(g17
g2
(dp795
g276
F0.0
sg277
g509
sg279
F1.0
stp796
Rp797
stp798
Rp799
sg547
g0
(g17
g2
(dp800
g8
g0
(g17
g2
(dp801
g550
g0
(g17
g2
(dp802
g552
F10.0
sg553
F50.0
sg554
F140.0
stp803
Rp804
sg31
g0
(g17
g2
(dp805
g561
F54.4
sg562
F-77.0
sg563
F2.5
stp806
Rp807
stp808
Rp809
sg55
g0
(g17
g2
(dp810
g98
g0
(g17
g2
(dp811
g582
F0.009
stp812
Rp813
sg57
g0
(g17
g2
(dp814
g589
F-70.0
sg590
F5e-05
stp815
Rp816
sg74
g0
(g17
g2
(dp817
g597
F0.09
stp818
Rp819
stp820
Rp821
sg136
g0
(g17
g2
(dp822
g138
I3001
sg139
F3.0
sg140
F300.0
sg141
F1.2
sg142
F150.0
stp823
Rp824
sg148
g0
(g17
g2
(dp825
g276
F0.0
sg277
g624
sg279
F0.0
stp826
Rp827
stp828
Rp829
stp830
Rp831
bsVglobals
p832
g0
(g1
g2
(dp833
S'ki0_k_ion'
p834
F140.0
sS'celsius'
p835
F23.0
sS'ko0_k_ion'
p836
F3.82
stp837
Rp838
g0
(g17
g2
(dp839
g834
F140.0
sg835
F23.0
sg836
F3.82
stp840
Rp841
bsVsecLists
p842
g0
(g1
g2
(dp843
S'all'
p844
(lp845
Vsoma
p846
aVrad1
p847
aVrad2
p848
aVori1
p849
aVori2
p850
astp851
Rp852
g0
(g17
g2
(dp853
g844
(lp854
g846
ag847
ag848
ag849
ag850
astp855
Rp856
bsVconds
p857
g0
(g1
g2
(dp858
S'cellModel'
p859
S'HH_simple'
p860
sS'cellType'
p861
S'VIP'
p862
stp863
Rp864
g0
(g17
g2
(dp865
g859
g860
sg861
g862
stp866
Rp867
bstp868
Rp869
g0
(g17
g2
(dp870
g4
g0
(g17
g2
(dp871
g6
g0
(g17
g2
(dp872
g8
g0
(g17
g2
(dp873
g10
g0
(g17
g2
(dp874
g12
F10.0
sg13
F50.0
sg14
F140.0
stp875
Rp876
sg21
g0
(g17
g2
(dp877
g23
F5e-05
sg24
F132.4579341637009
sg25
F2.0
stp878
Rp879
sg31
g0
(g17
g2
(dp880
g33
F54.4
sg34
F-77.0
sg35
F2.5
stp881
Rp882
stp883
Rp884
sg55
g0
(g17
g2
(dp885
g57
g0
(g17
g2
(dp886
g59
F-70.0
sg60
F5e-05
stp887
Rp888
sg66
g0
(g17
g2
(dp889
g68
F0.0
stp890
Rp891
sg74
g0
(g17
g2
(dp892
g76
F0.015
stp893
Rp894
sg82
g0
(g17
g2
(dp895
g84
F3e-05
stp896
Rp897
sg90
g0
(g17
g2
(dp898
g92
F0.000725
stp899
Rp900
sg98
g0
(g17
g2
(dp901
g100
F0.018
stp902
Rp903
sg106
g0
(g17
g2
(dp904
tp905
Rp906
stp907
Rp908
sg136
g0
(g17
g2
(dp909
g138
I201
sg139
F10.0
sg140
F20.0
sg141
F1.2
sg142
F150.0
stp910
Rp911
sg148
g0
(g17
g2
(dp912
tp913
Rp914
stp915
Rp916
sg199
g0
(g17
g2
(dp917
g8
g0
(g17
g2
(dp918
g202
g0
(g17
g2
(dp919
g204
F10.0
sg205
F50.0
sg206
F140.0
stp920
Rp921
sg31
g0
(g17
g2
(dp922
g213
F54.4
sg214
F-77.0
sg215
F2.5
stp923
Rp924
stp925
Rp926
sg55
g0
(g17
g2
(dp927
g98
g0
(g17
g2
(dp928
g234
F0.009
stp929
Rp930
sg57
g0
(g17
g2
(dp931
g241
F-70.0
sg242
F5e-05
stp932
Rp933
sg74
g0
(g17
g2
(dp934
g249
F0.09
stp935
Rp936
stp937
Rp938
sg136
g0
(g17
g2
(dp939
g138
I1501
sg139
F1.5
sg140
F150.0
sg141
F1.2
sg142
F150.0
stp940
Rp941
sg148
g0
(g17
g2
(dp942
g276
F0.0
sg277
g278
sg279
F0.0
stp943
Rp944
stp945
Rp946
sg317
g0
(g17
g2
(dp947
g8
g0
(g17
g2
(dp948
g320
g0
(g17
g2
(dp949
g322
F10.0
sg323
F50.0
sg324
F140.0
stp950
Rp951
sg31
g0
(g17
g2
(dp952
g331
F54.4
sg332
F-77.0
sg333
F2.5
stp953
Rp954
stp955
Rp956
sg55
g0
(g17
g2
(dp957
g98
g0
(g17
g2
(dp958
g352
F0.009
stp959
Rp960
sg57
g0
(g17
g2
(dp961
g359
F-70.0
sg360
F5e-05
stp962
Rp963
sg74
g0
(g17
g2
(dp964
g367
F0.09
stp965
Rp966
stp967
Rp968
sg136
g0
(g17
g2
(dp969
g138
I1501
sg139
F1.5
sg140
F150.0
sg141
F1.2
sg142
F150.0
stp970
Rp971
sg148
g0
(g17
g2
(dp972
g276
F0.0
sg277
g394
sg279
F1.0
stp973
Rp974
stp975
Rp976
sg432
g0
(g17
g2
(dp977
g8
g0
(g17
g2
(dp978
g435
g0
(g17
g2
(dp979
g437
F10.0
sg438
F50.0
sg439
F140.0
stp980
Rp981
sg31
g0
(g17
g2
(dp982
g446
F54.4
sg447
F-77.0
sg448
F2.5
stp983
Rp984
stp985
Rp986
sg55
g0
(g17
g2
(dp987
g98
g0
(g17
g2
(dp988
g467
F0.009
stp989
Rp990
sg57
g0
(g17
g2
(dp991
g474
F-70.0
sg475
F5e-05
stp992
Rp993
sg74
g0
(g17
g2
(dp994
g482
F0.09
stp995
Rp996
stp997
Rp998
sg136
g0
(g17
g2
(dp999
g138
I3001
sg139
F3.0
sg140
F300.0
sg141
F1.2
sg142
F150.0
stp1000
Rp1001
sg148
g0
(g17
g2
(dp1002
g276
F0.0
sg277
g509
sg279
F1.0
stp1003
Rp1004
stp1005
Rp1006
sg547
g0
(g17
g2
(dp1007
g8
g0
(g17
g2
(dp1008
g550
g0
(g17
g2
(dp1009
g552
F10.0
sg553
F50.0
sg554
F140.0
stp1010
Rp1011
sg31
g0
(g17
g2
(dp1012
g561
F54.4
sg562
F-77.0
sg563
F2.5
stp1013
Rp1014
stp1015
Rp1016
sg55
g0
(g17
g2
(dp1017
g98
g0
(g17
g2
(dp1018
g582
F0.009
stp1019
Rp1020
sg57
g0
(g17
g2
(dp1021
g589
F-70.0
sg590
F5e-05
stp1022
Rp1023
sg74
g0
(g17
g2
(dp1024
g597
F0.09
stp1025
Rp1026
stp1027
Rp1028
sg136
g0
(g17
g2
(dp1029
g138
I3001
sg139
F3.0
sg140
F300.0
sg141
F1.2
sg142
F150.0
stp1030
Rp1031
sg148
g0
(g17
g2
(dp1032
g276
F0.0
sg277
g624
sg279
F0.0
stp1033
Rp1034
stp1035
Rp1036
stp1037
Rp1038
sg832
g0
(g17
g2
(dp1039
g834
F140.0
sg835
F23.0
sg836
F3.82
stp1040
Rp1041
sg842
g0
(g17
g2
(dp1042
g844
(lp1043
g846
ag847
ag848
ag849
ag850
astp1044
Rp1045
sg857
g0
(g17
g2
(dp1046
g859
g860
sg861
g862
stp1047
Rp1048
stp1049
Rp1050
b.